target datalayout = "e-m:e-p270:32:32-p271:32:32-p272:64:64-i64:64-i128:128-f80:128-n8:16:32:64-S128"
target triple = "x86_64-pc-linux-gnu"

%struct.IOStreamMemData = type { ptr, ptr, ptr }
%struct.IOStreamDynamicMemData = type { ptr, %struct.IOStreamMemData, ptr }

@.str.19 = private unnamed_addr constant [27 x i8] c"Unknown value for 'whence'\00", align 1

; Function Attrs: nounwind uwtable
define internal i64 @mem_seek(ptr noundef %0, i64 noundef %1, i32 noundef %2) #0 {
  %4 = alloca i64, align 8
  %5 = alloca ptr, align 8
  %6 = alloca i64, align 8
  %7 = alloca i32, align 4
  %8 = alloca ptr, align 8
  %9 = alloca ptr, align 8
  %10 = alloca i32, align 4
  store ptr %0, ptr %5, align 8
  store i64 %1, ptr %6, align 8
  store i32 %2, ptr %7, align 4
  call void @llvm.lifetime.start.p0(i64 8, ptr %8) #11
  %11 = load ptr, ptr %5, align 8
  store ptr %11, ptr %8, align 8
  call void @llvm.lifetime.start.p0(i64 8, ptr %9) #11
  %12 = load i32, ptr %7, align 4
  switch i32 %12, label %31 [
    i32 0, label %13
    i32 1, label %19
    i32 2, label %25
  ]

13:                                               ; preds = %3
  %14 = load ptr, ptr %8, align 8
  %15 = getelementptr inbounds nuw %struct.IOStreamMemData, ptr %14, i32 0, i32 0
  %16 = load ptr, ptr %15, align 8
  %17 = load i64, ptr %6, align 8
  %18 = getelementptr inbounds i8, ptr %16, i64 %17
  store ptr %18, ptr %9, align 8
  br label %33

19:                                               ; preds = %3
  %20 = load ptr, ptr %8, align 8
  %21 = getelementptr inbounds nuw %struct.IOStreamMemData, ptr %20, i32 0, i32 1
  %22 = load ptr, ptr %21, align 8
  %23 = load i64, ptr %6, align 8
  %24 = getelementptr inbounds i8, ptr %22, i64 %23
  store ptr %24, ptr %9, align 8
  br label %33

25:                                               ; preds = %3
  %26 = load ptr, ptr %8, align 8
  %27 = getelementptr inbounds nuw %struct.IOStreamMemData, ptr %26, i32 0, i32 2
  %28 = load ptr, ptr %27, align 8
  %29 = load i64, ptr %6, align 8
  %30 = getelementptr inbounds i8, ptr %28, i64 %29
  store ptr %30, ptr %9, align 8
  br label %33

31:                                               ; preds = %3
  %32 = call zeroext i1 (ptr, ...) @SDL_SetError_REAL(ptr noundef @.str.19)
  store i64 -1, ptr %4, align 8
  store i32 1, ptr %10, align 4
  br label %66

33:                                               ; preds = %25, %19, %13
  %34 = load ptr, ptr %9, align 8
  %35 = load ptr, ptr %8, align 8
  %36 = getelementptr inbounds nuw %struct.IOStreamMemData, ptr %35, i32 0, i32 0
  %37 = load ptr, ptr %36, align 8
  %38 = icmp ult ptr %34, %37
  br i1 %38, label %39, label %43

39:                                               ; preds = %33
  %40 = load ptr, ptr %8, align 8
  %41 = getelementptr inbounds nuw %struct.IOStreamMemData, ptr %40, i32 0, i32 0
  %42 = load ptr, ptr %41, align 8
  store ptr %42, ptr %9, align 8
  br label %43

43:                                               ; preds = %39, %33
  %44 = load ptr, ptr %9, align 8
  %45 = load ptr, ptr %8, align 8
  %46 = getelementptr inbounds nuw %struct.IOStreamMemData, ptr %45, i32 0, i32 2
  %47 = load ptr, ptr %46, align 8
  %48 = icmp ugt ptr %44, %47
  br i1 %48, label %49, label %53

49:                                               ; preds = %43
  %50 = load ptr, ptr %8, align 8
  %51 = getelementptr inbounds nuw %struct.IOStreamMemData, ptr %50, i32 0, i32 2
  %52 = load ptr, ptr %51, align 8
  store ptr %52, ptr %9, align 8
  br label %53

53:                                               ; preds = %49, %43
  %54 = load ptr, ptr %9, align 8
  %55 = load ptr, ptr %8, align 8
  %56 = getelementptr inbounds nuw %struct.IOStreamMemData, ptr %55, i32 0, i32 1
  store ptr %54, ptr %56, align 8
  %57 = load ptr, ptr %8, align 8
  %58 = getelementptr inbounds nuw %struct.IOStreamMemData, ptr %57, i32 0, i32 1
  %59 = load ptr, ptr %58, align 8
  %60 = load ptr, ptr %8, align 8
  %61 = getelementptr inbounds nuw %struct.IOStreamMemData, ptr %60, i32 0, i32 0
  %62 = load ptr, ptr %61, align 8
  %63 = ptrtoint ptr %59 to i64
  %64 = ptrtoint ptr %62 to i64
  %65 = sub i64 %63, %64
  store i64 %65, ptr %4, align 8
  store i32 1, ptr %10, align 4
  br label %66

66:                                               ; preds = %53, %31
  call void @llvm.lifetime.end.p0(i64 8, ptr %9) #11
  call void @llvm.lifetime.end.p0(i64 8, ptr %8) #11
  %67 = load i64, ptr %4, align 8
  ret i64 %67
}

; Function Attrs: nounwind uwtable
define internal i64 @dynamic_mem_seek(ptr noundef %0, i64 noundef %1, i32 noundef %2) #0 {
  %4 = alloca ptr, align 8
  %5 = alloca i64, align 8
  %6 = alloca i32, align 4
  %7 = alloca ptr, align 8
  store ptr %0, ptr %4, align 8
  store i64 %1, ptr %5, align 8
  store i32 %2, ptr %6, align 4
  call void @llvm.lifetime.start.p0(i64 8, ptr %7) #11
  %8 = load ptr, ptr %4, align 8
  store ptr %8, ptr %7, align 8
  %9 = load ptr, ptr %7, align 8
  %10 = getelementptr inbounds nuw %struct.IOStreamDynamicMemData, ptr %9, i32 0, i32 1
  %11 = load i64, ptr %5, align 8
  %12 = load i32, ptr %6, align 4
  %13 = call i64 @mem_seek(ptr noundef %10, i64 noundef %11, i32 noundef %12)
  call void @llvm.lifetime.end.p0(i64 8, ptr %7) #11
  ret i64 %13
}