; Function Attrs: nounwind uwtable
define internal i64 @dynamic_mem_seek(ptr noundef captures(none) %0, i64 noundef %1, i32 noundef %2) #0 {
  %4 = getelementptr inbounds nuw i8, ptr %0, i64 8
  switch i32 %2, label %9 [
    i32 0, label %11
    i32 1, label %5
    i32 2, label %7
  ]

5:                                                ; preds = %3
  %6 = getelementptr inbounds nuw i8, ptr %0, i64 16
  br label %11

7:                                                ; preds = %3
  %8 = getelementptr inbounds nuw i8, ptr %0, i64 24
  br label %11

9:                                                ; preds = %3
  %10 = tail call zeroext i1 (ptr, ...) @SDL_SetError_REAL(ptr noundef nonnull @.str.19) #18
  br label %mem_seek.exit

11:                                               ; preds = %3, %7, %5
  %.sink.in.i = phi ptr [ %8, %7 ], [ %6, %5 ], [ %4, %3 ]
  %.sink.i = load ptr, ptr %.sink.in.i, align 8
  %12 = getelementptr inbounds i8, ptr %.sink.i, i64 %1
  %13 = load ptr, ptr %4, align 8
  %14 = icmp ult ptr %12, %13
  %spec.select.i = select i1 %14, ptr %13, ptr %12
  %15 = getelementptr inbounds nuw i8, ptr %0, i64 24
  %16 = load ptr, ptr %15, align 8
  %17 = icmp ugt ptr %spec.select.i, %16
  %.2.i = select i1 %17, ptr %16, ptr %spec.select.i
  %18 = getelementptr inbounds nuw i8, ptr %0, i64 16
  store ptr %.2.i, ptr %18, align 8
  %19 = ptrtoint ptr %.2.i to i64
  %20 = ptrtoint ptr %13 to i64
  %21 = sub i64 %19, %20
  br label %mem_seek.exit

mem_seek.exit:                                    ; preds = %9, %11
  %.018.i = phi i64 [ -1, %9 ], [ %21, %11 ]
  ret i64 %.018.i
}